target datalayout = "e-m:e-p270:32:32-p271:32:32-p272:64:64-i64:64-i128:128-f80:128-n8:16:32:64-S128"
target triple = "x86_64-pc-linux-gnu"

%"class.doctest::String" = type { %union.anon }
%union.anon = type { %"struct.doctest::String::view", [8 x i8] }
%"struct.doctest::String::view" = type { ptr, i32, i32 }
%"struct.doctest::detail::ContextScopeBase.base" = type <{ %"struct.doctest::IContextScope", i8 }>
%"struct.doctest::IContextScope" = type { ptr }
%"struct.doctest::detail::MessageBuilder" = type <{ %"struct.doctest::MessageData", ptr, i8, [7 x i8] }>
%"struct.doctest::MessageData" = type { %"class.doctest::String", ptr, i32, i32 }
%"class.doctest::detail::ContextScope.349" = type { %"struct.doctest::detail::ContextScopeBase.base", %class.anon.350 }
%class.anon.350 = type { ptr }

@.str.58 = private unnamed_addr constant [123 x i8] c"generated/home/dtcxzyw/WorkSpace/Projects/compilers/llvm-opt-benchmark/bench/luau/luau/tests/NonStrictTypeChecker.test.cpp\00", align 1
@.str.138 = private unnamed_addr constant [19 x i8] c"Expected error at \00", align 1

; Function Attrs: mustprogress uwtable
define linkonce_odr dso_local noundef nonnull align 8 dereferenceable(49) ptr @_ZN7doctest6detail14MessageBuilderlsIN4Luau8PositionEEERS1_RKT_(ptr noundef nonnull align 8 dereferenceable(49) %0, ptr noundef nonnull align 4 dereferenceable(8) %1) #6 comdat align 2 {
  %3 = alloca ptr, align 8
  %4 = alloca ptr, align 8
  store ptr %0, ptr %3, align 8
  store ptr %1, ptr %4, align 8
  %5 = load ptr, ptr %3, align 8
  %6 = load ptr, ptr %4, align 8
  %7 = call noundef nonnull align 8 dereferenceable(49) ptr @_ZN7doctest6detail14MessageBuildercmIN4Luau8PositionEEERS1_RKT_(ptr noundef nonnull align 8 dereferenceable(49) %5, ptr noundef nonnull align 4 dereferenceable(8) %6)
  ret ptr %7
}

; Function Attrs: mustprogress uwtable
define linkonce_odr dso_local noundef nonnull align 8 dereferenceable(49) ptr @_ZN7doctest6detail14MessageBuildermlIA19_cEERS1_RKT_(ptr noundef nonnull align 8 dereferenceable(49) %0, ptr noundef nonnull align 1 dereferenceable(19) %1) #6 comdat align 2 {
  %3 = alloca ptr, align 8
  %4 = alloca ptr, align 8
  store ptr %0, ptr %3, align 8
  store ptr %1, ptr %4, align 8
  %5 = load ptr, ptr %3, align 8
  %6 = load ptr, ptr %4, align 8
  %7 = call noundef nonnull align 8 dereferenceable(49) ptr @_ZN7doctest6detail14MessageBuildercmIA19_cEERS1_RKT_(ptr noundef nonnull align 8 dereferenceable(49) %5, ptr noundef nonnull align 1 dereferenceable(19) %6)
  ret ptr %7
}

; Function Attrs: mustprogress uwtable
define internal void @_ZZN12_GLOBAL__N_122DOCTEST_ANON_CLASS_1681fEvENKUlPSoE1_clES1_(ptr noundef nonnull align 8 dereferenceable(8) %0, ptr noundef %1) #6 align 2 personality ptr @__gxx_personality_v0 {
  %3 = alloca ptr, align 8
  %4 = alloca ptr, align 8
  %5 = alloca %"struct.doctest::detail::MessageBuilder", align 8
  %6 = alloca ptr, align 8
  %7 = alloca i32, align 4
  store ptr %0, ptr %3, align 8
  store ptr %1, ptr %4, align 8
  %8 = load ptr, ptr %3, align 8
  call void @_ZN7doctest6detail14MessageBuilderC1EPKciNS_10assertType4EnumE(ptr noundef nonnull align 8 dereferenceable(49) %5, ptr noundef @.str.58, i32 noundef 357, i32 noundef 1)
  %9 = load ptr, ptr %4, align 8
  %10 = getelementptr inbounds %"struct.doctest::detail::MessageBuilder", ptr %5, i32 0, i32 1
  store ptr %9, ptr %10, align 8
  %11 = invoke noundef nonnull align 8 dereferenceable(49) ptr @_ZN7doctest6detail14MessageBuildermlIA19_cEERS1_RKT_(ptr noundef nonnull align 8 dereferenceable(49) %5, ptr noundef nonnull align 1 dereferenceable(19) @.str.138)
          to label %12 unwind label %17

12:                                               ; preds = %2
  %13 = getelementptr inbounds %class.anon.350, ptr %8, i32 0, i32 0
  %14 = load ptr, ptr %13, align 8
  %15 = invoke noundef nonnull align 8 dereferenceable(49) ptr @_ZN7doctest6detail14MessageBuilderlsIN4Luau8PositionEEERS1_RKT_(ptr noundef nonnull align 8 dereferenceable(49) %11, ptr noundef nonnull align 4 dereferenceable(8) %14)
          to label %16 unwind label %17

16:                                               ; preds = %12
  call void @_ZN7doctest6detail14MessageBuilderD1Ev(ptr noundef nonnull align 8 dereferenceable(49) %5) #2
  ret void

17:                                               ; preds = %12, %2
  %18 = landingpad { ptr, i32 }
          cleanup
  %19 = extractvalue { ptr, i32 } %18, 0
  store ptr %19, ptr %6, align 8
  %20 = extractvalue { ptr, i32 } %18, 1
  store i32 %20, ptr %7, align 4
  call void @_ZN7doctest6detail14MessageBuilderD1Ev(ptr noundef nonnull align 8 dereferenceable(49) %5) #2
  br label %21

21:                                               ; preds = %17
  %22 = load ptr, ptr %6, align 8
  %23 = load i32, ptr %7, align 4
  %24 = insertvalue { ptr, i32 } poison, ptr %22, 0
  %25 = insertvalue { ptr, i32 } %24, i32 %23, 1
  resume { ptr, i32 } %25
}

; Function Attrs: mustprogress uwtable
define internal void @_ZNK7doctest6detail12ContextScopeIZN12_GLOBAL__N_122DOCTEST_ANON_CLASS_1681fEvEUlPSoE1_E9stringifyES4_(ptr noundef nonnull align 8 dereferenceable(24) %0, ptr noundef %1) unnamed_addr #6 align 2 {
  %3 = alloca ptr, align 8
  %4 = alloca ptr, align 8
  store ptr %0, ptr %3, align 8
  store ptr %1, ptr %4, align 8
  %5 = load ptr, ptr %3, align 8
  %6 = getelementptr inbounds %"class.doctest::detail::ContextScope.349", ptr %5, i32 0, i32 1
  %7 = load ptr, ptr %4, align 8
  call void @_ZZN12_GLOBAL__N_122DOCTEST_ANON_CLASS_1681fEvENKUlPSoE1_clES1_(ptr noundef nonnull align 8 dereferenceable(8) %6, ptr noundef %7)
  ret void
}